(dp1
S'nfreqs'
p2
(lp3
I224
aI299
aI449
aI599
aI749
aI1499
aI4499
aI7499
asS'tftp'
p4
(lp5
F0.42426180839538574
aF0.51293396949768066
aF0.76992177963256836
aF1.0559861660003662
aF1.2915549278259277
aF2.4832639694213867
aF7.0925450325012207
aF11.933249950408936
asS'ndata'
p6
(lp7
I15
aI20
aI30
aI40
aI50
aI100
aI300
aI500
asS'tgats'
p8
(lp9
I-1
aI-1
aI-1
aI-1
aI-1
aI-1
aI-1
aI-1
as.