(dp1
S'nfreqs'
p2
(lp3
I224
aI299
aI449
aI599
aI749
aI1499
aI4499
aI7499
asS'tftp'
p4
(lp5
F0.21685290336608887
aF0.27857303619384766
aF0.45493888854980469
aF0.57204413414001465
aF0.6854560375213623
aF1.332205057144165
aF3.9507300853729248
aF7.1317439079284668
asS'ndata'
p6
(lp7
I15
aI20
aI30
aI40
aI50
aI100
aI300
aI500
asS'tgats'
p8
(lp9
I-1
aI-1
aI-1
aI-1
aI-1
aI-1
aI-1
aI-1
as.