(dp1
I10000
(F7.8543481826782227
F155.80710577964783
tp2
sI100
(F7.1294260025024414
F13.546467065811157
tp3
sI40
(F7.0734221935272217
F12.237308025360107
tp4
sI300
(F7.1247050762176514
F16.863070964813232
tp5
sI15
(F7.1202428340911865
F12.031309127807617
tp6
sI2000
(F7.3238821029663086
F41.26089882850647
tp7
sI1000
(F7.1983659267425537
F27.356940031051636
tp8
sI50
(F7.0985288619995117
F12.647732019424438
tp9
sI20
(F7.1589760780334473
F12.085541963577271
tp10
sI500
(F7.0897231101989746
F19.566985130310059
tp11
sI30
(F7.0800778865814209
F12.165183782577515
tp12
sI5000
(F7.6698529720306396
F82.20618200302124
tp13
s.