(dp1
S'nfreqs'
p2
(lp3
I224
aI299
aI449
aI599
aI749
aI1499
aI4499
aI7499
asS'tftp'
p4
(lp5
F0.70702195167541504
aF0.95103907585144043
aF1.3724899291992188
aF1.8380091190338135
aF2.5062830448150635
aF4.6674299240112305
aF14.327375173568726
aF24.083987951278687
asS'ndata'
p6
(lp7
I15
aI20
aI30
aI40
aI50
aI100
aI300
aI500
asS'tgats'
p8
(lp9
F2.1957938671112061
aF3.068079948425293
aF5.3826701641082764
aF8.4594490528106689
aF11.963699102401733
aF35.794794082641602
aF259.49545216560364
aF685.02715110778809
as.