((lp1
F0.017236693404441509
aF0.084768192262517666
aF-0.025868045485970211
aF-0.35139357484293837
aF-0.020472556767639573
aF-0.044177255970691255
aF0.012610542103934483
aF0.06307971074765599
aF0.010572249880543066
aF0.014568623025235657
a(lp2
F0.040431652645696189
aF0.90635224856278651
aF0.0004486039885721316
aF0.095847656866715703
aF-0.040201341703816951
aF-0.16401500934401442
aF-0.01397713760749667
aF-0.022342578660977143
aF0.0046621371260032358
aF-0.0028899559409531557
at.