(dp1
S'nfreqs'
p2
(lp3
I187
aI250
aI375
aI500
aI625
aI1250
aI3750
aI6250
asS'tftp'
p4
(lp5
F0.2277829647064209
aF0.32282710075378418
aF0.49135184288024902
aF0.6225590705871582
aF0.80765914916992188
aF1.4836268424987793
aF4.4101698398590088
aF7.7155559062957764
asS'ndata'
p6
(lp7
I15
aI20
aI30
aI40
aI50
aI100
aI300
aI500
asS'tgats'
p8
(lp9
I-1
aI-1
aI-1
aI-1
aI-1
aI-1
aI-1
aI-1
as.