(dp1
I1
F1.7836050987243652
sI2
F1.9326598644256592
sI3
F2.1704690456390381
sI4
F2.3568949699401855
sI5
F2.6714048385620117
sI6
F3.3668859004974365
sI7
F4.1165580749511719
sI8
F4.3546891212463379
sI9
F6.1664559841156006
sI10
F6.0763521194458008
sI11
F7.4152369499206543
sI13
F13.183490991592407
sI15
F17.422859907150269
sI50
F268.08519697189331
sI20
F29.027195930480957
sI25
F47.186420202255249
sI60
F428.44769692420959
sI30
F82.80205512046814
s.