(dp1
I1
F1.4317660331726074
sI2
F1.8931190967559814
sI3
F2.4346098899841309
sI4
F2.9793121814727783
sI5
F3.7037079334259033
sI6
F4.5514459609985352
sI7
F5.3287627696990967
sI8
F6.2928030490875244
sI9
F7.8036339282989502
sI10
F9.6431398391723633
sI11
F11.121409893035889
sI13
F18.200711965560913
sI15
F26.327672958374023
sI35
F249.92857313156128
sI20
F45.83240008354187
sI25
F84.071990013122559
sI30
F157.47700095176697
s.