(dp1
I10000
(F0.81274199485778809
F87.319921970367432
tp2
sI100
(F0.77078986167907715
F9.766930103302002
tp3
sI40
(F0.73153996467590332
F8.3175780773162842
tp4
sI300
(F0.7819678783416748
F11.351327896118164
tp5
sI15
(F0.76901388168334961
F8.2992720603942871
tp6
sI2000
(F0.79093694686889648
F25.058369159698486
tp7
sI1000
(F0.76414799690246582
F17.838219881057739
tp8
sI50
(F0.73686099052429199
F8.5031991004943848
tp9
sI20
(F0.74639797210693359
F8.3093070983886719
tp10
sI500
(F0.75187206268310547
F12.710373163223267
tp11
sI30
(F0.7346498966217041
F8.2596631050109863
tp12
s.