(dp1
I1
F0.1596062183380127
sI2
F0.19398903846740723
sI3
F0.24982213973999023
sI4
F0.30751299858093262
sI5
F0.39393019676208496
sI6
F0.47770500183105469
sI7
F0.56317901611328125
sI8
F0.64604806900024414
sI9
F0.80664491653442383
sI10
F0.9205479621887207
sI11
F1.0883989334106445
sI12
F1.7663981914520264
sI13
F1.7632150650024414
sI15
F2.5216729640960693
sI20
F4.4063229560852051
sI25
F8.3098058700561523
sI30
F15.655694007873535
sI35
F25.027498006820679
sI50
F80.730484962463379
sI60
F1389.3761401176453
s.