(dp1
S'nfreqs'
p2
(lp3
I187
aI250
aI375
aI500
aI625
aI1250
aI3750
aI6250
asS'tftp'
p4
(lp5
F0.46068692207336426
aF0.63372492790222168
aF0.9210050106048584
aF1.2429461479187012
aF1.5247328281402588
aF3.1659450531005859
aF10.72353196144104
aF17.882643938064575
asS'ndata'
p6
(lp7
I15
aI20
aI30
aI40
aI50
aI100
aI300
aI500
asS'tgats'
p8
(lp9
F3.2612631320953369
aF4.5405638217926025
aF6.7805740833282471
aF8.978294849395752
aF11.704252004623413
aF26.888470888137817
aF106.81902480125427
aF225.36700201034546
as.