(dp1
S'nfreqs'
p2
(lp3
I187
aI250
aI375
aI500
aI625
aI1250
aI3750
aI6250
asS'tftp'
p4
(lp5
F0.29754090309143066
aF0.40764117240905762
aF0.60973501205444336
aF0.79302000999450684
aF0.98080205917358398
aF1.9628078937530518
aF7.0321009159088135
aF12.748649835586548
asS'ndata'
p6
(lp7
I15
aI20
aI30
aI40
aI50
aI100
aI300
aI500
asS'tgats'
p8
(lp9
I-1
aI-1
aI-1
aI-1
aI-1
aI-1
aI-1
aI-1
as.