(dp1
I1
F0.15700006484985352
sI2
F0.17788410186767578
sI3
F0.20001506805419922
sI4
F0.22809195518493652
sI5
F0.26121306419372559
sI6
F0.33558797836303711
sI7
F0.36562609672546387
sI8
F0.43395519256591797
sI9
F0.49880409240722656
sI10
F0.56749105453491211
sI11
F0.67858791351318359
sI13
F1.3056440353393555
sI15
F1.5161070823669434
sI50
F24.938627004623413
sI20
F2.865900993347168
sI25
F4.04534912109375
sI60
F42.124003887176514
sI30
F7.9197380542755127
s.